EXPORTS
    METATABLE_NAME @1 DATA
    _Z10yyget_lengPv @2
    _Z10yyget_lvalPv @3
    _Z10yyget_textPv @4
    _Z10yylex_initPPv @5
    _Z10yyset_lvalP7YYSTYPEPv @6
    _Z11yyget_debugPv @7
    _Z11yyget_extraPv @8
    _Z11yyset_debugiPv @9
    _Z11yyset_extraP10parse_infoPv @10
    _Z12yyget_columnPv @11
    _Z12yyget_linenoPv @12
    _Z12yyset_columniPv @13
    _Z12yyset_linenoiPv @14
    _Z13lua_newparserP9lua_State @15
    _Z13yy_scan_bytesPKcyPv @16
    _Z13yylex_destroyPv @17
    _Z14yy_scan_bufferPcyPv @18
    _Z14yy_scan_stringPKcPv @19
    _Z15lua_checkparserP9lua_Statei @20
    _Z15yy_flush_bufferP15yy_buffer_statePv @21
    _Z16yy_create_bufferP6_iobufiPv @22
    _Z16yy_delete_bufferP15yy_buffer_statePv @23
    _Z16yylex_init_extraP10parse_infoPPv @24
    _Z18yypop_buffer_statePv @25
    _Z19lua_checkdictionaryP9lua_Statei @26
    _Z19yy_switch_to_bufferP15yy_buffer_statePv @27
    _Z19yypush_buffer_stateP15yy_buffer_statePv @28
    _Z22lua_dict_date_callbackP9lua_StatePvyyy @29
    _Z22lua_dict_name_callbackP9lua_StatePvRKNSt7__cxx1112basic_stringIcSt11char_traitsIcESaIcEEE @30
    _Z22lua_dict_word_callbackP9lua_StatePvRKSt6vectorINSt7__cxx1112basic_stringIcSt11char_traitsIcESaIcEEESaIS8_EE @31
    _Z23lua_dictionaryparser_gcP9lua_State @32
    _Z24lua_dictionaryparser_newP9lua_State @33
    _Z26lua_dictionaryparser_parseP9lua_State @34
    _Z5yylexP7YYSTYPEPv @35
    _Z6yyfreePvS_ @36
    _Z7yyallocyPv @37
    _Z7yyerrorP10parse_infoPKcz @38
    _Z7yyparseP10parse_info @39
    _Z8yyget_inPv @40
    _Z8yyset_inP6_iobufPv @41
    _Z9vsnprintfPcyPKcS_ @42
    _Z9yyget_outPv @43
    _Z9yyreallocPvyS_ @44
    _Z9yyrestartP6_iobufPv @45
    _Z9yyset_outP6_iobufPv @46
    _ZN10parse_infoC1Ev @47
    _ZN10parse_infoD1Ev @48
    _ZN6Parser13get_callbacksEv @49
    _ZN6Parser5parseEP9lua_StateP6_iobufRNSt7__cxx1112basic_stringIcSt11char_traitsIcESaIcEEE @50
    _ZN6Parser8add_dateEP10parse_infoyyy @51
    _ZN6Parser8add_nameEP10parse_infoRKNSt7__cxx1112basic_stringIcSt11char_traitsIcESaIcEEE @52
    _ZN6Parser8add_wordEP10parse_infoRKSt6vectorINSt7__cxx1112basic_stringIcSt11char_traitsIcESaIcEEESaIS8_EE @53
    _ZN6ParserC1ERK14data_callbacks @54
    _ZN6ParserC2ERK14data_callbacks @55
    _ZN6ParserD1Ev @56
    _ZN6ParserD2Ev @57
    _ZN9__gnu_cxx13new_allocatorINSt7__cxx1112basic_stringIcSt11char_traitsIcESaIcEEEE10deallocateEPS6_y @58
    _ZN9__gnu_cxx13new_allocatorINSt7__cxx1112basic_stringIcSt11char_traitsIcESaIcEEEE7destroyIS6_EEvPT_ @59
    _ZN9__gnu_cxx13new_allocatorINSt7__cxx1112basic_stringIcSt11char_traitsIcESaIcEEEE8allocateEyPKv @60
    _ZN9__gnu_cxx13new_allocatorINSt7__cxx1112basic_stringIcSt11char_traitsIcESaIcEEEE9constructIS6_JRKS6_EEEvPT_DpOT0_ @61
    _ZN9__gnu_cxx13new_allocatorINSt7__cxx1112basic_stringIcSt11char_traitsIcESaIcEEEEC2Ev @62
    _ZN9__gnu_cxx13new_allocatorINSt7__cxx1112basic_stringIcSt11char_traitsIcESaIcEEEED2Ev @63
    _ZN9__gnu_cxx17__normal_iteratorIPKNSt7__cxx1112basic_stringIcSt11char_traitsIcESaIcEEESt6vectorIS6_SaIS6_EEEC1ERKS8_ @64
    _ZN9__gnu_cxx17__normal_iteratorIPKNSt7__cxx1112basic_stringIcSt11char_traitsIcESaIcEEESt6vectorIS6_SaIS6_EEEppEv @65
    _ZN9__gnu_cxxneIPKNSt7__cxx1112basic_stringIcSt11char_traitsIcESaIcEEESt6vectorIS6_SaIS6_EEEEbRKNS_17__normal_iteratorIT_T0_EESH_ @66
    _ZNK9__gnu_cxx13new_allocatorINSt7__cxx1112basic_stringIcSt11char_traitsIcESaIcEEEE8max_sizeEv @67
    _ZNK9__gnu_cxx17__normal_iteratorIPKNSt7__cxx1112basic_stringIcSt11char_traitsIcESaIcEEESt6vectorIS6_SaIS6_EEE4baseEv @68
    _ZNK9__gnu_cxx17__normal_iteratorIPKNSt7__cxx1112basic_stringIcSt11char_traitsIcESaIcEEESt6vectorIS6_SaIS6_EEEdeEv @69
    _ZNKSt12_Vector_baseINSt7__cxx1112basic_stringIcSt11char_traitsIcESaIcEEESaIS5_EE19_M_get_Tp_allocatorEv @70
    _ZNKSt13move_iteratorIPNSt7__cxx1112basic_stringIcSt11char_traitsIcESaIcEEEE4baseEv @71
    _ZNKSt13move_iteratorIPNSt7__cxx1112basic_stringIcSt11char_traitsIcESaIcEEEEdeEv @72
    _ZNKSt6vectorINSt7__cxx1112basic_stringIcSt11char_traitsIcESaIcEEESaIS5_EE12_M_check_lenEyPKc @73
    _ZNKSt6vectorINSt7__cxx1112basic_stringIcSt11char_traitsIcESaIcEEESaIS5_EE3endEv @74
    _ZNKSt6vectorINSt7__cxx1112basic_stringIcSt11char_traitsIcESaIcEEESaIS5_EE4sizeEv @75
    _ZNKSt6vectorINSt7__cxx1112basic_stringIcSt11char_traitsIcESaIcEEESaIS5_EE5beginEv @76
    _ZNKSt6vectorINSt7__cxx1112basic_stringIcSt11char_traitsIcESaIcEEESaIS5_EE8max_sizeEv @77
    _ZNSaINSt7__cxx1112basic_stringIcSt11char_traitsIcESaIcEEEEC2Ev @78
    _ZNSaINSt7__cxx1112basic_stringIcSt11char_traitsIcESaIcEEEED2Ev @79
    _ZNSt12_Destroy_auxILb0EE9__destroyIPNSt7__cxx1112basic_stringIcSt11char_traitsIcESaIcEEEEEvT_S9_ @80
    _ZNSt12_Vector_baseINSt7__cxx1112basic_stringIcSt11char_traitsIcESaIcEEESaIS5_EE11_M_allocateEy @81
    _ZNSt12_Vector_baseINSt7__cxx1112basic_stringIcSt11char_traitsIcESaIcEEESaIS5_EE12_Vector_implC1Ev @82
    _ZNSt12_Vector_baseINSt7__cxx1112basic_stringIcSt11char_traitsIcESaIcEEESaIS5_EE12_Vector_implD1Ev @83
    _ZNSt12_Vector_baseINSt7__cxx1112basic_stringIcSt11char_traitsIcESaIcEEESaIS5_EE13_M_deallocateEPS5_y @84
    _ZNSt12_Vector_baseINSt7__cxx1112basic_stringIcSt11char_traitsIcESaIcEEESaIS5_EE19_M_get_Tp_allocatorEv @85
    _ZNSt12_Vector_baseINSt7__cxx1112basic_stringIcSt11char_traitsIcESaIcEEESaIS5_EEC2Ev @86
    _ZNSt12_Vector_baseINSt7__cxx1112basic_stringIcSt11char_traitsIcESaIcEEESaIS5_EED2Ev @87
    _ZNSt13move_iteratorIPNSt7__cxx1112basic_stringIcSt11char_traitsIcESaIcEEEEC1ES6_ @88
    _ZNSt13move_iteratorIPNSt7__cxx1112basic_stringIcSt11char_traitsIcESaIcEEEEppEv @89
    _ZNSt16allocator_traitsISaINSt7__cxx1112basic_stringIcSt11char_traitsIcESaIcEEEEE10_S_destroyIS5_EENSt9enable_ifIXsrSt6__and_IJNS7_16__destroy_helperIT_E4typeEEE5valueEvE4typeERS6_PSC_ @90
    _ZNSt16allocator_traitsISaINSt7__cxx1112basic_stringIcSt11char_traitsIcESaIcEEEEE10deallocateERS6_PS5_y @91
    _ZNSt16allocator_traitsISaINSt7__cxx1112basic_stringIcSt11char_traitsIcESaIcEEEEE11_S_max_sizeIKS6_vEEyRT_i @92
    _ZNSt16allocator_traitsISaINSt7__cxx1112basic_stringIcSt11char_traitsIcESaIcEEEEE12_S_constructIS5_JRKS5_EEENSt9enable_ifIXsrSt6__and_IJNS7_18__construct_helperIT_JDpT0_EE4typeEEE5valueEvE4typeERS6_PSE_DpOSF_ @93
    _ZNSt16allocator_traitsISaINSt7__cxx1112basic_stringIcSt11char_traitsIcESaIcEEEEE7destroyIS5_EEvRS6_PT_ @94
    _ZNSt16allocator_traitsISaINSt7__cxx1112basic_stringIcSt11char_traitsIcESaIcEEEEE8allocateERS6_y @95
    _ZNSt16allocator_traitsISaINSt7__cxx1112basic_stringIcSt11char_traitsIcESaIcEEEEE8max_sizeERKS6_ @96
    _ZNSt16allocator_traitsISaINSt7__cxx1112basic_stringIcSt11char_traitsIcESaIcEEEEE9constructIS5_JRKS5_EEEDTcl12_S_constructfp_fp0_spcl7forwardIT0_Efp1_EEERS6_PT_DpOSB_ @97
    _ZNSt20__uninitialized_copyILb0EE13__uninit_copyISt13move_iteratorIPNSt7__cxx1112basic_stringIcSt11char_traitsIcESaIcEEEES9_EET0_T_SC_SB_ @98
    _ZNSt6vectorINSt7__cxx1112basic_stringIcSt11char_traitsIcESaIcEEESaIS5_EE19_M_emplace_back_auxIJRKS5_EEEvDpOT_ @99
    _ZNSt6vectorINSt7__cxx1112basic_stringIcSt11char_traitsIcESaIcEEESaIS5_EE9push_backERKS5_ @100
    _ZNSt6vectorINSt7__cxx1112basic_stringIcSt11char_traitsIcESaIcEEESaIS5_EEC1Ev @101
    _ZNSt6vectorINSt7__cxx1112basic_stringIcSt11char_traitsIcESaIcEEESaIS5_EED1Ev @102
    _ZSt10_ConstructINSt7__cxx1112basic_stringIcSt11char_traitsIcESaIcEEEJS5_EEvPT_DpOT0_ @103
    _ZSt11__addressofINSt7__cxx1112basic_stringIcSt11char_traitsIcESaIcEEEEPT_RS6_ @104
    _ZSt18uninitialized_copyISt13move_iteratorIPNSt7__cxx1112basic_stringIcSt11char_traitsIcESaIcEEEES7_ET0_T_SA_S9_ @105
    _ZSt22__uninitialized_copy_aISt13move_iteratorIPNSt7__cxx1112basic_stringIcSt11char_traitsIcESaIcEEEES7_S6_ET0_T_SA_S9_RSaIT1_E @106
    _ZSt32__make_move_if_noexcept_iteratorIPNSt7__cxx1112basic_stringIcSt11char_traitsIcESaIcEEESt13move_iteratorIS6_EET0_T_ @107
    _ZSt34__uninitialized_move_if_noexcept_aIPNSt7__cxx1112basic_stringIcSt11char_traitsIcESaIcEEES6_SaIS5_EET0_T_S9_S8_RT1_ @108
    _ZSt3maxIyERKT_S2_S2_ @109
    _ZSt7forwardINSt7__cxx1112basic_stringIcSt11char_traitsIcESaIcEEEEOT_RNSt16remove_referenceIS6_E4typeE @110
    _ZSt7forwardIRKNSt7__cxx1112basic_stringIcSt11char_traitsIcESaIcEEEEOT_RNSt16remove_referenceIS8_E4typeE @111
    _ZSt8_DestroyINSt7__cxx1112basic_stringIcSt11char_traitsIcESaIcEEEEvPT_ @112
    _ZSt8_DestroyIPNSt7__cxx1112basic_stringIcSt11char_traitsIcESaIcEEEEvT_S7_ @113
    _ZSt8_DestroyIPNSt7__cxx1112basic_stringIcSt11char_traitsIcESaIcEEES5_EvT_S7_RSaIT0_E @114
    _ZSteqIPNSt7__cxx1112basic_stringIcSt11char_traitsIcESaIcEEEEbRKSt13move_iteratorIT_ESB_ @115
    _ZStneIPNSt7__cxx1112basic_stringIcSt11char_traitsIcESaIcEEEEbRKSt13move_iteratorIT_ESB_ @116
    _ZStorSt13_Ios_OpenmodeS_ @117
    _ZdlPvS_ @118
    _ZnwyPv @119
    luaopen_std_dictionaryparser @120
