EXPORTS
    METATABLE_NAME @1 DATA
    _Z10yyget_lengPv @2
    _Z10yyget_lvalPv @3
    _Z10yyget_textPv @4
    _Z10yylex_initPPv @5
    _Z10yyset_lvalP7YYSTYPEPv @6
    _Z11yyget_debugPv @7
    _Z11yyget_extraPv @8
    _Z11yyset_debugiPv @9
    _Z11yyset_extraP10parse_infoPv @10
    _Z12yyget_columnPv @11
    _Z12yyget_linenoPv @12
    _Z12yyset_columniPv @13
    _Z12yyset_linenoiPv @14
    _Z13lua_newparserP9lua_State @15
    _Z13yy_scan_bytesPKcyPv @16
    _Z13yylex_destroyPv @17
    _Z14yy_scan_bufferPcyPv @18
    _Z14yy_scan_stringPKcPv @19
    _Z15lua_checkparserP9lua_Statei @20
    _Z15yy_flush_bufferP15yy_buffer_statePv @21
    _Z16yy_create_bufferP6_iobufiPv @22
    _Z16yy_delete_bufferP15yy_buffer_statePv @23
    _Z16yylex_init_extraP10parse_infoPPv @24
    _Z18yypop_buffer_statePv @25
    _Z19lua_checkdictionaryP9lua_Statei @26
    _Z19yy_switch_to_bufferP15yy_buffer_statePv @27
    _Z19yypush_buffer_stateP15yy_buffer_statePv @28
    _Z22lua_dict_date_callbackP9lua_StatePvyyy @29
    _Z22lua_dict_name_callbackP9lua_StatePvRKNSt7__cxx1112basic_stringIcSt11char_traitsIcESaIcEEE @30
    _Z22lua_dict_word_callbackP9lua_StatePvRKSt6vectorINSt7__cxx1112basic_stringIcSt11char_traitsIcESaIcEEESaIS8_EE @31
    _Z23lua_dictionaryparser_gcP9lua_State @32
    _Z24lua_dictionaryparser_newP9lua_State @33
    _Z26lua_dictionaryparser_parseP9lua_State @34
    _Z5yylexP7YYSTYPEPv @35
    _Z6yyfreePvS_ @36
    _Z7yyallocyPv @37
    _Z7yyerrorP10parse_infoPKcz @38
    _Z7yyparseP10parse_info @39
    _Z8yyget_inPv @40
    _Z8yyset_inP6_iobufPv @41
    _Z9yyget_outPv @42
    _Z9yyreallocPvyS_ @43
    _Z9yyrestartP6_iobufPv @44
    _Z9yyset_outP6_iobufPv @45
    _ZN6Parser13get_callbacksEv @46
    _ZN6Parser5parseEP9lua_StateP6_iobufRNSt7__cxx1112basic_stringIcSt11char_traitsIcESaIcEEE @47
    _ZN6Parser8add_dateEP10parse_infoyyy @48
    _ZN6Parser8add_nameEP10parse_infoRKNSt7__cxx1112basic_stringIcSt11char_traitsIcESaIcEEE @49
    _ZN6Parser8add_wordEP10parse_infoRKSt6vectorINSt7__cxx1112basic_stringIcSt11char_traitsIcESaIcEEESaIS8_EE @50
    _ZN6ParserC1ERK14data_callbacks @51
    _ZN6ParserC2ERK14data_callbacks @52
    _ZN6ParserD1Ev @53
    _ZN6ParserD2Ev @54
    _ZNKSt5ctypeIcE8do_widenEc @55
    _ZNSt6vectorINSt7__cxx1112basic_stringIcSt11char_traitsIcESaIcEEESaIS5_EE19_M_emplace_back_auxIJRKS5_EEEvDpOT_ @56
    luaopen_std_dictionaryparser @57
